ccopy_reg
_reconstructor
p0
(csklearn.preprocessing.label
LabelEncoder
p1
c__builtin__
object
p2
Ntp3
Rp4
(dp5
S'classes_'
p6
cnumpy.core.multiarray
_reconstruct
p7
(cnumpy
ndarray
p8
(I0
tp9
S'b'
p10
tp11
Rp12
(I1
(I6
tp13
cnumpy
dtype
p14
(S'S25'
p15
I0
I1
tp16
Rp17
(I3
S'|'
p18
NNNI25
I1
I0
tp19
bI00
S'id-Jangsungwon_961203_1\x00\x00id-Kimheewon_960924_2\x00\x00\x00\x00id-Parkhyosang_960903_3\x00\x00id-Parkmyunghun_960730_4\x00id-Seokchanhee_960723_5\x00\x00id-Yoonyoungshin_961203_6'
p20
tp21
bsS'_sklearn_version'
p22
S'0.20.0'
p23
sb.